; ModuleID = '3/114.c'
source_filename = "3/114.c"
target datalayout = "e-m:e-p270:32:32-p271:32:32-p272:64:64-i64:64-f80:128-n8:16:32:64-S128"
target triple = "x86_64-pc-linux-gnu"

@.str = private unnamed_addr constant [3 x i8] c"%d\00", align 1
@.str.1 = private unnamed_addr constant [4 x i8] c"yes\00", align 1
@.str.2 = private unnamed_addr constant [3 x i8] c"no\00", align 1

; Function Attrs: noinline nounwind uwtable
define dso_local i32 @main(i32 %0, i8** %1) #0 {
  %3 = alloca i32, align 4
  %4 = alloca i32, align 4
  %5 = alloca i8**, align 8
  %6 = alloca i32, align 4
  %7 = alloca i32, align 4
  %8 = alloca i32, align 4
  %9 = alloca i32, align 4
  %10 = alloca i32, align 4
  %11 = alloca i32, align 4
  %12 = alloca [1001 x i32], align 16
  store i32 0, i32* %3, align 4
  store i32 %0, i32* %4, align 4
  store i8** %1, i8*** %5, align 8
  store i32 0, i32* %11, align 4
  %13 = call i32 (i8*, ...) @__isoc99_scanf(i8* getelementptr inbounds ([3 x i8], [3 x i8]* @.str, i64 0, i64 0), i32* %8)
  %14 = call i32 (i8*, ...) @__isoc99_scanf(i8* getelementptr inbounds ([3 x i8], [3 x i8]* @.str, i64 0, i64 0), i32* %9)
  store i32 1, i32* %6, align 4
  br label %15

15:                                               ; preds = %25, %2
  %16 = load i32, i32* %6, align 4
  %17 = load i32, i32* %8, align 4
  %18 = add nsw i32 %17, 1
  %19 = icmp slt i32 %16, %18
  br i1 %19, label %20, label %28

20:                                               ; preds = %15
  %21 = load i32, i32* %6, align 4
  %22 = sext i32 %21 to i64
  %23 = getelementptr inbounds [1001 x i32], [1001 x i32]* %12, i64 0, i64 %22
  %24 = call i32 (i8*, ...) @__isoc99_scanf(i8* getelementptr inbounds ([3 x i8], [3 x i8]* @.str, i64 0, i64 0), i32* %23)
  br label %25

25:                                               ; preds = %20
  %26 = load i32, i32* %6, align 4
  %27 = add nsw i32 %26, 1
  store i32 %27, i32* %6, align 4
  br label %15

28:                                               ; preds = %15
  store i32 1, i32* %6, align 4
  br label %29

29:                                               ; preds = %75, %28
  %30 = load i32, i32* %6, align 4
  %31 = load i32, i32* %8, align 4
  %32 = add nsw i32 %31, 1
  %33 = icmp slt i32 %30, %32
  br i1 %33, label %34, label %78

34:                                               ; preds = %29
  store i32 1, i32* %7, align 4
  br label %35

35:                                               ; preds = %61, %34
  %36 = load i32, i32* %7, align 4
  %37 = load i32, i32* %8, align 4
  %38 = add nsw i32 %37, 1
  %39 = icmp slt i32 %36, %38
  br i1 %39, label %40, label %64

40:                                               ; preds = %35
  %41 = load i32, i32* %6, align 4
  %42 = load i32, i32* %7, align 4
  %43 = icmp ne i32 %41, %42
  br i1 %43, label %44, label %60

44:                                               ; preds = %40
  %45 = load i32, i32* %6, align 4
  %46 = sext i32 %45 to i64
  %47 = getelementptr inbounds [1001 x i32], [1001 x i32]* %12, i64 0, i64 %46
  %48 = load i32, i32* %47, align 4
  %49 = load i32, i32* %7, align 4
  %50 = sext i32 %49 to i64
  %51 = getelementptr inbounds [1001 x i32], [1001 x i32]* %12, i64 0, i64 %50
  %52 = load i32, i32* %51, align 4
  %53 = add nsw i32 %48, %52
  store i32 %53, i32* %10, align 4
  %54 = load i32, i32* %10, align 4
  %55 = load i32, i32* %9, align 4
  %56 = icmp eq i32 %54, %55
  br i1 %56, label %57, label %59

57:                                               ; preds = %44
  %58 = call i32 (i8*, ...) @printf(i8* getelementptr inbounds ([4 x i8], [4 x i8]* @.str.1, i64 0, i64 0))
  store i32 1, i32* %11, align 4
  br label %64

59:                                               ; preds = %44
  br label %60

60:                                               ; preds = %59, %40
  br label %61

61:                                               ; preds = %60
  %62 = load i32, i32* %7, align 4
  %63 = add nsw i32 %62, 1
  store i32 %63, i32* %7, align 4
  br label %35

64:                                               ; preds = %57, %35
  %65 = load i32, i32* %11, align 4
  %66 = icmp eq i32 %65, 1
  br i1 %66, label %67, label %68

67:                                               ; preds = %64
  br label %78

68:                                               ; preds = %64
  %69 = load i32, i32* %6, align 4
  %70 = load i32, i32* %8, align 4
  %71 = icmp eq i32 %69, %70
  br i1 %71, label %72, label %74

72:                                               ; preds = %68
  %73 = call i32 (i8*, ...) @printf(i8* getelementptr inbounds ([3 x i8], [3 x i8]* @.str.2, i64 0, i64 0))
  br label %74

74:                                               ; preds = %72, %68
  br label %75

75:                                               ; preds = %74
  %76 = load i32, i32* %6, align 4
  %77 = add nsw i32 %76, 1
  store i32 %77, i32* %6, align 4
  br label %29

78:                                               ; preds = %67, %29
  ret i32 0
}

declare dso_local i32 @__isoc99_scanf(i8*, ...) #1

declare dso_local i32 @printf(i8*, ...) #1


!llvm.module.flags = !{!0}
!llvm.ident = !{!1}

!0 = !{i32 1, !"wchar_size", i32 4}
!1 = !{!"clang version 10.0.0-4ubuntu1 "}
