; ModuleID = 'source-C-CXX/2/114.c'
source_filename = "source-C-CXX/2/114.c"
target datalayout = "e-m:e-p270:32:32-p271:32:32-p272:64:64-i64:64-f80:128-n8:16:32:64-S128"
target triple = "x86_64-pc-linux-gnu"

@.str = private unnamed_addr constant [3 x i8] c"%d\00", align 1
@.str.1 = private unnamed_addr constant [4 x i8] c"yes\00", align 1
@.str.2 = private unnamed_addr constant [3 x i8] c"no\00", align 1

; Function Attrs: nofree nounwind sspstrong uwtable
define dso_local i32 @main(i32 %0, i8** nocapture readnone %1) local_unnamed_addr #0 {
  %3 = alloca i32, align 4
  %4 = alloca i32, align 4
  %5 = alloca [1001 x i32], align 16
  %6 = bitcast i32* %3 to i8*
  call void @llvm.lifetime.start.p0i8(i64 4, i8* nonnull %6) #3
  %7 = bitcast i32* %4 to i8*
  call void @llvm.lifetime.start.p0i8(i64 4, i8* nonnull %7) #3
  %8 = call i32 (i8*, ...) @__isoc99_scanf(i8* getelementptr inbounds ([3 x i8], [3 x i8]* @.str, i64 0, i64 0), i32* nonnull %3)
  %9 = call i32 (i8*, ...) @__isoc99_scanf(i8* getelementptr inbounds ([3 x i8], [3 x i8]* @.str, i64 0, i64 0), i32* nonnull %4)
  %10 = bitcast [1001 x i32]* %5 to i8*
  call void @llvm.lifetime.start.p0i8(i64 4004, i8* nonnull %10) #3
  %11 = load i32, i32* %3, align 4, !tbaa !5
  %12 = icmp slt i32 %11, 1
  br i1 %12, label %57, label %15

13:                                               ; preds = %15
  %14 = icmp slt i32 %20, 1
  br i1 %14, label %57, label %23

15:                                               ; preds = %2, %15
  %16 = phi i64 [ %19, %15 ], [ 1, %2 ]
  %17 = getelementptr inbounds [1001 x i32], [1001 x i32]* %5, i64 0, i64 %16
  %18 = call i32 (i8*, ...) @__isoc99_scanf(i8* getelementptr inbounds ([3 x i8], [3 x i8]* @.str, i64 0, i64 0), i32* nonnull %17)
  %19 = add nuw nsw i64 %16, 1
  %20 = load i32, i32* %3, align 4, !tbaa !5
  %21 = sext i32 %20 to i64
  %22 = icmp slt i64 %16, %21
  br i1 %22, label %15, label %13, !llvm.loop !9

23:                                               ; preds = %13, %52
  %24 = phi i32 [ %53, %52 ], [ %20, %13 ]
  %25 = phi i64 [ %54, %52 ], [ 1, %13 ]
  %26 = getelementptr inbounds [1001 x i32], [1001 x i32]* %5, i64 0, i64 %25
  %27 = load i32, i32* %4, align 4
  %28 = icmp slt i32 %24, 1
  br i1 %28, label %46, label %29

29:                                               ; preds = %23
  %30 = add nuw i32 %24, 1
  %31 = zext i32 %30 to i64
  br label %32

32:                                               ; preds = %29, %43
  %33 = phi i64 [ 1, %29 ], [ %44, %43 ]
  %34 = icmp eq i64 %25, %33
  br i1 %34, label %43, label %35

35:                                               ; preds = %32
  %36 = load i32, i32* %26, align 4, !tbaa !5
  %37 = getelementptr inbounds [1001 x i32], [1001 x i32]* %5, i64 0, i64 %33
  %38 = load i32, i32* %37, align 4, !tbaa !5
  %39 = add nsw i32 %38, %36
  %40 = icmp eq i32 %39, %27
  br i1 %40, label %41, label %43

41:                                               ; preds = %35
  %42 = call i32 (i8*, ...) @printf(i8* nonnull dereferenceable(1) getelementptr inbounds ([4 x i8], [4 x i8]* @.str.1, i64 0, i64 0))
  br label %57

43:                                               ; preds = %32, %35
  %44 = add nuw nsw i64 %33, 1
  %45 = icmp eq i64 %44, %31
  br i1 %45, label %46, label %32, !llvm.loop !11

46:                                               ; preds = %43, %23
  %47 = zext i32 %24 to i64
  %48 = icmp eq i64 %25, %47
  br i1 %48, label %49, label %52

49:                                               ; preds = %46
  %50 = call i32 (i8*, ...) @printf(i8* nonnull dereferenceable(1) getelementptr inbounds ([3 x i8], [3 x i8]* @.str.2, i64 0, i64 0))
  %51 = load i32, i32* %3, align 4, !tbaa !5
  br label %52

52:                                               ; preds = %46, %49
  %53 = phi i32 [ %24, %46 ], [ %51, %49 ]
  %54 = add nuw nsw i64 %25, 1
  %55 = sext i32 %53 to i64
  %56 = icmp slt i64 %25, %55
  br i1 %56, label %23, label %57, !llvm.loop !12

57:                                               ; preds = %52, %2, %13, %41
  call void @llvm.lifetime.end.p0i8(i64 4004, i8* nonnull %10) #3
  call void @llvm.lifetime.end.p0i8(i64 4, i8* nonnull %7) #3
  call void @llvm.lifetime.end.p0i8(i64 4, i8* nonnull %6) #3
  ret i32 0
}

; Function Attrs: argmemonly mustprogress nofree nosync nounwind willreturn
declare void @llvm.lifetime.start.p0i8(i64 immarg, i8* nocapture) #1

; Function Attrs: nofree nounwind
declare noundef i32 @__isoc99_scanf(i8* nocapture noundef readonly, ...) local_unnamed_addr #2

; Function Attrs: nofree nounwind
declare noundef i32 @printf(i8* nocapture noundef readonly, ...) local_unnamed_addr #2

; Function Attrs: argmemonly mustprogress nofree nosync nounwind willreturn
declare void @llvm.lifetime.end.p0i8(i64 immarg, i8* nocapture) #1


!llvm.module.flags = !{!0, !1, !2, !3}
!llvm.ident = !{!4}

!0 = !{i32 1, !"wchar_size", i32 4}
!1 = !{i32 7, !"PIC Level", i32 2}
!2 = !{i32 7, !"PIE Level", i32 2}
!3 = !{i32 7, !"uwtable", i32 1}
!4 = !{!"clang version 13.0.0"}
!5 = !{!6, !6, i64 0}
!6 = !{!"int", !7, i64 0}
!7 = !{!"omnipotent char", !8, i64 0}
!8 = !{!"Simple C/C++ TBAA"}
!9 = distinct !{!9, !10}
!10 = !{!"llvm.loop.mustprogress"}
!11 = distinct !{!11, !10}
!12 = distinct !{!12, !10}
